target datalayout = "e-m:e-p270:32:32-p271:32:32-p272:64:64-i64:64-i128:128-f80:128-n8:16:32:64-S128"
target triple = "x86_64-pc-linux-gnu"

%"class.Json::Value::CZString" = type <{ ptr, %union.anon.25, [4 x i8] }>
%union.anon.25 = type { i32 }

; Function Attrs: mustprogress nounwind uwtable
define dso_local void @_ZN4Json5Value8CZStringC2EPKcjNS1_17DuplicationPolicyE(ptr noundef nonnull align 8 dereferenceable(12) %0, ptr noundef %1, i32 noundef %2, i32 noundef %3) unnamed_addr #0 align 2 {
  %5 = alloca ptr, align 8
  %6 = alloca ptr, align 8
  %7 = alloca i32, align 4
  %8 = alloca i32, align 4
  store ptr %0, ptr %5, align 8
  store ptr %1, ptr %6, align 8
  store i32 %2, ptr %7, align 4
  store i32 %3, ptr %8, align 4
  %9 = load ptr, ptr %5, align 8
  %10 = getelementptr inbounds %"class.Json::Value::CZString", ptr %9, i32 0, i32 0
  %11 = load ptr, ptr %6, align 8
  store ptr %11, ptr %10, align 8
  %12 = load i32, ptr %8, align 4
  %13 = and i32 %12, 3
  %14 = getelementptr inbounds %"class.Json::Value::CZString", ptr %9, i32 0, i32 1
  %15 = load i32, ptr %14, align 8
  %16 = and i32 %13, 3
  %17 = and i32 %15, -4
  %18 = or i32 %17, %16
  store i32 %18, ptr %14, align 8
  %19 = load i32, ptr %7, align 4
  %20 = and i32 %19, 1073741823
  %21 = getelementptr inbounds %"class.Json::Value::CZString", ptr %9, i32 0, i32 1
  %22 = load i32, ptr %21, align 8
  %23 = and i32 %20, 1073741823
  %24 = shl i32 %23, 2
  %25 = and i32 %22, 3
  %26 = or i32 %25, %24
  store i32 %26, ptr %21, align 8
  ret void
}