; Function Attrs: mustprogress nofree norecurse nosync nounwind willreturn memory(argmem: write) uwtable
define dso_local void @_ZN4Json5Value8CZStringC2EPKcjNS1_17DuplicationPolicyE(ptr nocapture noundef nonnull writeonly align 8 dereferenceable(12) %0, ptr noundef %1, i32 noundef %2, i32 noundef %3) unnamed_addr #0 align 2 {
  store ptr %1, ptr %0, align 8
  %5 = and i32 %3, 3
  %6 = getelementptr inbounds i8, ptr %0, i64 8
  %7 = shl i32 %2, 2
  %8 = or disjoint i32 %5, %7
  store i32 %8, ptr %6, align 8
  ret void
}